; Function Attrs: mustprogress uwtable
define void @_ZN13sentencepiece20SentencePieceTrainer5TrainERKSt13unordered_mapINSt7__cxx1112basic_stringIcSt11char_traitsIcESaIcEEES7_St4hashIS7_ESt8equal_toIS7_ESaISt4pairIKS7_S7_EEERKSt6vectorIS7_SaIS7_EEPS7_(ptr dead_on_unwind noalias writable sret(%"class.sentencepiece::util::Status") align 8 %0, ptr noundef nonnull readonly align 8 captures(none) dereferenceable(56) %1, ptr noundef nonnull readonly align 8 captures(none) dereferenceable(24) %2, ptr noundef %3) local_unnamed_addr #3 align 2 personality ptr @__gxx_personality_v0 {
  %5 = alloca %"class.sentencepiece::(anonymous namespace)::VectorSentenceIterator", align 8
  call void @llvm.lifetime.start.p0(i64 24, ptr nonnull %5) #26
  store ptr getelementptr inbounds nuw inrange(-16, 48) (i8, ptr @_ZTVN13sentencepiece12_GLOBAL__N_122VectorSentenceIteratorE, i64 16), ptr %5, align 8, !tbaa !20
  %6 = getelementptr inbounds nuw i8, ptr %5, i64 8
  %7 = load ptr, ptr %2, align 8, !tbaa !25
  store ptr %7, ptr %6, align 8
  %8 = getelementptr inbounds nuw i8, ptr %5, i64 16
  %9 = getelementptr inbounds nuw i8, ptr %2, i64 8
  %10 = load ptr, ptr %9, align 8, !tbaa !25
  store ptr %10, ptr %8, align 8
  call void @_ZN13sentencepiece20SentencePieceTrainer5TrainERKSt13unordered_mapINSt7__cxx1112basic_stringIcSt11char_traitsIcESaIcEEES7_St4hashIS7_ESt8equal_toIS7_ESaISt4pairIKS7_S7_EEEPNS_16SentenceIteratorEPS7_(ptr dead_on_unwind writable sret(%"class.sentencepiece::util::Status") align 8 %0, ptr noundef nonnull align 8 dereferenceable(56) %1, ptr noundef nonnull %5, ptr noundef %3)
  call void @llvm.lifetime.end.p0(i64 24, ptr nonnull %5) #26
  ret void
}